target datalayout = "e-m:e-p270:32:32-p271:32:32-p272:64:64-i64:64-i128:128-f80:128-n8:16:32:64-S128"
target triple = "x86_64-pc-linux-gnu"

%struct.Py_complex = type { double, double }

@PyExc_ValueError = external global ptr, align 8
@.str.25 = private unnamed_addr constant [18 x i8] c"math domain error\00", align 1
@PyExc_OverflowError = external global ptr, align 8
@.str.26 = private unnamed_addr constant [17 x i8] c"math range error\00", align 1
@.str.32 = private unnamed_addr constant [3 x i8] c"dd\00", align 1

; Function Attrs: nounwind uwtable
define internal ptr @math_error() #0 {
  %1 = call ptr @__errno_location() #9
  %2 = load i32, ptr %1, align 4, !tbaa !11
  %3 = icmp eq i32 %2, 33
  br i1 %3, label %4, label %6

4:                                                ; preds = %0
  %5 = load ptr, ptr @PyExc_ValueError, align 8, !tbaa !3
  call void @PyErr_SetString(ptr noundef %5, ptr noundef @.str.25)
  br label %16

6:                                                ; preds = %0
  %7 = call ptr @__errno_location() #9
  %8 = load i32, ptr %7, align 4, !tbaa !11
  %9 = icmp eq i32 %8, 34
  br i1 %9, label %10, label %12

10:                                               ; preds = %6
  %11 = load ptr, ptr @PyExc_OverflowError, align 8, !tbaa !3
  call void @PyErr_SetString(ptr noundef %11, ptr noundef @.str.26)
  br label %15

12:                                               ; preds = %6
  %13 = load ptr, ptr @PyExc_ValueError, align 8, !tbaa !3
  %14 = call ptr @PyErr_SetFromErrno(ptr noundef %13)
  br label %15

15:                                               ; preds = %12, %10
  br label %16

16:                                               ; preds = %15, %4
  ret ptr null
}

; Function Attrs: nounwind uwtable
define internal ptr @cmath_polar_impl(ptr noundef %0, double %1, double %2) #0 {
  %4 = alloca ptr, align 8
  %5 = alloca %struct.Py_complex, align 8
  %6 = alloca ptr, align 8
  %7 = alloca double, align 8
  %8 = alloca double, align 8
  %9 = alloca i32, align 4
  %10 = getelementptr inbounds nuw { double, double }, ptr %5, i32 0, i32 0
  store double %1, ptr %10, align 8
  %11 = getelementptr inbounds nuw { double, double }, ptr %5, i32 0, i32 1
  store double %2, ptr %11, align 8
  store ptr %0, ptr %6, align 8, !tbaa !3
  call void @llvm.lifetime.start.p0(i64 8, ptr %7) #8
  call void @llvm.lifetime.start.p0(i64 8, ptr %8) #8
  %12 = call ptr @__errno_location() #9
  store i32 0, ptr %12, align 4, !tbaa !11
  %13 = getelementptr inbounds nuw %struct.Py_complex, ptr %5, i32 0, i32 1
  %14 = load double, ptr %13, align 8, !tbaa !19
  %15 = getelementptr inbounds nuw %struct.Py_complex, ptr %5, i32 0, i32 0
  %16 = load double, ptr %15, align 8, !tbaa !17
  %17 = call double @atan2(double noundef %14, double noundef %16) #8, !tbaa !11
  store double %17, ptr %8, align 8, !tbaa !9
  %18 = getelementptr inbounds nuw { double, double }, ptr %5, i32 0, i32 0
  %19 = load double, ptr %18, align 8
  %20 = getelementptr inbounds nuw { double, double }, ptr %5, i32 0, i32 1
  %21 = load double, ptr %20, align 8
  %22 = call double @_Py_c_abs(double %19, double %21)
  store double %22, ptr %7, align 8, !tbaa !9
  %23 = call ptr @__errno_location() #9
  %24 = load i32, ptr %23, align 4, !tbaa !11
  %25 = icmp ne i32 %24, 0
  br i1 %25, label %26, label %28

26:                                               ; preds = %3
  %27 = call ptr @math_error()
  store ptr %27, ptr %4, align 8
  store i32 1, ptr %9, align 4
  br label %32

28:                                               ; preds = %3
  %29 = load double, ptr %7, align 8, !tbaa !9
  %30 = load double, ptr %8, align 8, !tbaa !9
  %31 = call ptr (ptr, ...) @Py_BuildValue(ptr noundef @.str.32, double noundef %29, double noundef %30)
  store ptr %31, ptr %4, align 8
  store i32 1, ptr %9, align 4
  br label %32

32:                                               ; preds = %28, %26
  call void @llvm.lifetime.end.p0(i64 8, ptr %8) #8
  call void @llvm.lifetime.end.p0(i64 8, ptr %7) #8
  %33 = load ptr, ptr %4, align 8
  ret ptr %33
}

; Function Attrs: nounwind uwtable
define internal ptr @cmath_polar(ptr noundef %0, ptr noundef %1) #0 {
  %3 = alloca ptr, align 8
  %4 = alloca ptr, align 8
  %5 = alloca ptr, align 8
  %6 = alloca %struct.Py_complex, align 8
  %7 = alloca %struct.Py_complex, align 8
  store ptr %0, ptr %3, align 8, !tbaa !3
  store ptr %1, ptr %4, align 8, !tbaa !3
  call void @llvm.lifetime.start.p0(i64 8, ptr %5) #8
  store ptr null, ptr %5, align 8, !tbaa !3
  call void @llvm.lifetime.start.p0(i64 16, ptr %6) #8
  call void @llvm.lifetime.start.p0(i64 16, ptr %7) #8
  %8 = load ptr, ptr %4, align 8, !tbaa !3
  %9 = call { double, double } @PyComplex_AsCComplex(ptr noundef %8)
  %10 = getelementptr inbounds nuw { double, double }, ptr %7, i32 0, i32 0
  %11 = extractvalue { double, double } %9, 0
  store double %11, ptr %10, align 8
  %12 = getelementptr inbounds nuw { double, double }, ptr %7, i32 0, i32 1
  %13 = extractvalue { double, double } %9, 1
  store double %13, ptr %12, align 8
  call void @llvm.memcpy.p0.p0.i64(ptr align 8 %6, ptr align 8 %7, i64 16, i1 false), !tbaa.struct !8
  call void @llvm.lifetime.end.p0(i64 16, ptr %7) #8
  %14 = call ptr @PyErr_Occurred()
  %15 = icmp ne ptr %14, null
  br i1 %15, label %16, label %17

16:                                               ; preds = %2
  br label %24

17:                                               ; preds = %2
  %18 = load ptr, ptr %3, align 8, !tbaa !3
  %19 = getelementptr inbounds nuw { double, double }, ptr %6, i32 0, i32 0
  %20 = load double, ptr %19, align 8
  %21 = getelementptr inbounds nuw { double, double }, ptr %6, i32 0, i32 1
  %22 = load double, ptr %21, align 8
  %23 = call ptr @cmath_polar_impl(ptr noundef %18, double %20, double %22)
  store ptr %23, ptr %5, align 8, !tbaa !3
  br label %24

24:                                               ; preds = %17, %16
  %25 = load ptr, ptr %5, align 8, !tbaa !3
  call void @llvm.lifetime.end.p0(i64 16, ptr %6) #8
  call void @llvm.lifetime.end.p0(i64 8, ptr %5) #8
  ret ptr %25
}