; Function Attrs: nounwind uwtable
define internal ptr @cmath_polar(ptr readnone captures(none) %0, ptr noundef %1) #0 {
  %3 = tail call { double, double } @PyComplex_AsCComplex(ptr noundef %1) #11
  %4 = tail call ptr @PyErr_Occurred() #11
  %.not = icmp eq ptr %4, null
  br i1 %.not, label %5, label %cmath_polar_impl.exit

5:                                                ; preds = %2
  %6 = extractvalue { double, double } %3, 1
  %7 = extractvalue { double, double } %3, 0
  %8 = tail call ptr @__errno_location() #12
  store i32 0, ptr %8, align 4, !tbaa !3
  %9 = tail call double @atan2(double noundef %6, double noundef %7) #11, !tbaa !3
  %10 = tail call double @_Py_c_abs(double %7, double %6) #11
  %11 = load i32, ptr %8, align 4, !tbaa !3
  switch i32 %11, label %16 [
    i32 0, label %19
    i32 33, label %12
    i32 34, label %14
  ]

12:                                               ; preds = %5
  %13 = load ptr, ptr @PyExc_ValueError, align 8, !tbaa !9
  tail call void @PyErr_SetString(ptr noundef %13, ptr noundef nonnull @.str.25) #11
  br label %cmath_polar_impl.exit

14:                                               ; preds = %5
  %15 = load ptr, ptr @PyExc_OverflowError, align 8, !tbaa !9
  tail call void @PyErr_SetString(ptr noundef %15, ptr noundef nonnull @.str.26) #11
  br label %cmath_polar_impl.exit

16:                                               ; preds = %5
  %17 = load ptr, ptr @PyExc_ValueError, align 8, !tbaa !9
  %18 = tail call ptr @PyErr_SetFromErrno(ptr noundef %17) #11
  br label %cmath_polar_impl.exit

19:                                               ; preds = %5
  %20 = tail call ptr (ptr, ...) @Py_BuildValue(ptr noundef nonnull @.str.32, double noundef %10, double noundef %9) #11
  br label %cmath_polar_impl.exit

cmath_polar_impl.exit:                            ; preds = %19, %16, %14, %12, %2
  %.0 = phi ptr [ null, %2 ], [ %20, %19 ], [ null, %12 ], [ null, %14 ], [ null, %16 ]
  ret ptr %.0
}